(dp0
S'METTS MARK'
p1
(dp2
S'salary'
p3
F365788.0
sS'to_messages'
p4
F807.0
sS'total_payments'
p5
F1061827.0
sS'long_term_incentive'
p6
S'NaN'
p7
sS'fraction_from_poi'
p8
F1.3103448275862069
sS'bonus'
p9
F600000.0
sS'email_address'
p10
S'mark.metts@enron.com'
p11
sS'restricted_stock_deferred'
p12
S'NaN'
p13
sS'total_stock_value'
p14
F585062.0
sS'expenses'
p15
F94299.0
sS'fraction_to_poi'
p16
F0.0012391573729863693
sS'exercised_stock_options'
p17
S'NaN'
p18
sS'from_messages'
p19
F29.0
sS'other'
p20
F1740.0
sS'from_this_person_to_poi'
p21
F1.0
sS'poi'
p22
I0
sS'deferred_income'
p23
S'NaN'
p24
sS'shared_receipt_with_poi'
p25
F702.0
sS'restricted_stock'
p26
F585062.0
sS'from_poi_to_this_person'
p27
F38.0
ssS'BAXTER JOHN C'
p28
(dp29
g3
F267102.0
sg4
S'NaN'
p30
sg5
F5634343.0
sg6
F1586055.0
sg8
S'NaN'
p31
sg9
F1200000.0
sg10
S'NaN'
p32
sg12
F0.0
sg14
F10623258.0
sg15
F11200.0
sg16
S'NaN'
p33
sg17
F6680544.0
sg19
S'NaN'
p34
sg20
F2660303.0
sg21
S'NaN'
p35
sg22
I0
sg23
F-1386055.0
sg25
S'NaN'
p36
sg26
F3942714.0
sg27
S'NaN'
p37
ssS'ELLIOTT STEVEN'
p38
(dp39
g3
F170941.0
sg4
g30
sg5
F211725.0
sg6
g7
sg8
g31
sg9
F350000.0
sg10
S'steven.elliott@enron.com'
p40
sg12
F0.0
sg14
F6678735.0
sg15
F78552.0
sg16
g33
sg17
F4890344.0
sg19
g34
sg20
F12961.0
sg21
g35
sg22
I0
sg23
F-400729.0
sg25
g36
sg26
F1788391.0
sg27
g37
ssS'CORDES WILLIAM R'
p41
(dp42
g3
S'NaN'
p43
sg4
F764.0
sg5
S'NaN'
p44
sg6
g7
sg8
F0.8333333333333334
sg9
S'NaN'
p45
sg10
S'bill.cordes@enron.com'
p46
sg12
F0.0
sg14
F1038185.0
sg15
S'NaN'
p47
sg16
F0.0
sg17
F651850.0
sg19
F12.0
sg20
S'NaN'
p48
sg21
F0.0
sg22
I0
sg23
g24
sg25
F58.0
sg26
F386335.0
sg27
F10.0
ssS'HANNON KEVIN P'
p49
(dp50
g3
F243293.0
sg4
F1045.0
sg5
F288682.0
sg6
F1617011.0
sg8
F1.0
sg9
F1500000.0
sg10
S'kevin.hannon@enron.com'
p51
sg12
F0.0
sg14
F6391065.0
sg15
F34039.0
sg16
F0.020095693779904306
sg17
F5538001.0
sg19
F32.0
sg20
F11350.0
sg21
F21.0
sg22
I1
sg23
F-3117011.0
sg25
F1035.0
sg26
F853064.0
sg27
F32.0
ssS'MORDAUNT KRISTINA M'
p52
(dp53
g3
F267093.0
sg4
g30
sg5
F628522.0
sg6
g7
sg8
g31
sg9
F325000.0
sg10
S'kristina.mordaunt@enron.com'
p54
sg12
g13
sg14
F208510.0
sg15
F35018.0
sg16
g33
sg17
g18
sg19
g34
sg20
F1411.0
sg21
g35
sg22
I0
sg23
g24
sg25
g36
sg26
F208510.0
sg27
g37
ssS'MEYER ROCKFORD G'
p55
(dp56
g3
g43
sg4
F232.0
sg5
F1848227.0
sg6
g7
sg8
F0.0
sg9
g45
sg10
S'rockford.meyer@enron.com'
p57
sg12
F0.0
sg14
F955873.0
sg15
g47
sg16
F0.0
sg17
F493489.0
sg19
F28.0
sg20
g48
sg21
F0.0
sg22
I0
sg23
g24
sg25
F22.0
sg26
F462384.0
sg27
F0.0
ssS'MCMAHON JEFFREY'
p58
(dp59
g3
F370448.0
sg4
F2355.0
sg5
F4099771.0
sg6
F694862.0
sg8
F1.2083333333333333
sg9
F2600000.0
sg10
S'jeffrey.mcmahon@enron.com'
p60
sg12
F0.0
sg14
F1662855.0
sg15
F137108.0
sg16
F0.011040339702760084
sg17
F1104054.0
sg19
F48.0
sg20
F297353.0
sg21
F26.0
sg22
I0
sg23
g24
sg25
F2228.0
sg26
F558801.0
sg27
F58.0
ssS'HORTON STANLEY C'
p61
(dp62
g3
g43
sg4
F2350.0
sg5
F3131860.0
sg6
g7
sg8
F0.04100652376514446
sg9
g45
sg10
S'stanley.horton@enron.com'
p63
sg12
F0.0
sg14
F7256648.0
sg15
g47
sg16
F0.006382978723404255
sg17
F5210569.0
sg19
F1073.0
sg20
g48
sg21
F15.0
sg22
I0
sg23
g24
sg25
F1074.0
sg26
F2046079.0
sg27
F44.0
ssS'PIPER GREGORY F'
p64
(dp65
g3
F197091.0
sg4
F1238.0
sg5
F1737629.0
sg6
g7
sg8
F0.2747747747747748
sg9
F400000.0
sg10
S'greg.piper@enron.com'
p66
sg12
F-409554.0
sg14
F880290.0
sg15
F43057.0
sg16
F0.03877221324717286
sg17
F880290.0
sg19
F222.0
sg20
F778.0
sg21
F48.0
sg22
I0
sg23
F-33333.0
sg25
F742.0
sg26
F409554.0
sg27
F61.0
ssS'HUMPHREY GENE E'
p67
(dp68
g3
F130724.0
sg4
F128.0
sg5
F3100224.0
sg6
g7
sg8
F0.5882352941176471
sg9
g45
sg10
S'gene.humphrey@enron.com'
p69
sg12
g13
sg14
F2282768.0
sg15
F4994.0
sg16
F0.1328125
sg17
F2282768.0
sg19
F17.0
sg20
g48
sg21
F17.0
sg22
I0
sg23
g24
sg25
F119.0
sg26
S'NaN'
p70
sg27
F10.0
ssS'UMANOFF ADAM S'
p71
(dp72
g3
F288589.0
sg4
F111.0
sg5
F1130461.0
sg6
g7
sg8
F0.6666666666666666
sg9
F788750.0
sg10
S'adam.umanoff@enron.com'
p73
sg12
g13
sg14
S'NaN'
p74
sg15
F53122.0
sg16
F0.0
sg17
g18
sg19
F18.0
sg20
g48
sg21
F0.0
sg22
I0
sg23
g24
sg25
F41.0
sg26
g70
sg27
F12.0
ssS'BLACHMAN JEREMY M'
p75
(dp76
g3
F248546.0
sg4
F2475.0
sg5
F2014835.0
sg6
F831809.0
sg8
F1.7857142857142858
sg9
F850000.0
sg10
S'jeremy.blachman@enron.com'
p77
sg12
F0.0
sg14
F954354.0
sg15
F84208.0
sg16
F0.0008080808080808081
sg17
F765313.0
sg19
F14.0
sg20
F272.0
sg21
F2.0
sg22
I0
sg23
g24
sg25
F2326.0
sg26
F189041.0
sg27
F25.0
ssS'SUNDE MARTIN'
p78
(dp79
g3
F257486.0
sg4
F2647.0
sg5
F1545059.0
sg6
F476451.0
sg8
F0.9736842105263158
sg9
F700000.0
sg10
S'marty.sunde@enron.com'
p80
sg12
g13
sg14
F698920.0
sg15
g47
sg16
F0.004911220249338874
sg17
g18
sg19
F38.0
sg20
F111122.0
sg21
F13.0
sg22
I0
sg23
g24
sg25
F2565.0
sg26
F698920.0
sg27
F37.0
ssS'GIBBS DANA R'
p81
(dp82
g3
g43
sg4
F169.0
sg5
F966522.0
sg6
F461912.0
sg8
F0.0
sg9
g45
sg10
S'dana.gibbs@enron.com'
p83
sg12
g13
sg14
F2218275.0
sg15
g47
sg16
F0.0
sg17
F2218275.0
sg19
F12.0
sg20
g48
sg21
F0.0
sg22
I0
sg23
g24
sg25
F23.0
sg26
g70
sg27
F0.0
ssS'LOWRY CHARLES P'
p84
(dp85
g3
g43
sg4
g30
sg5
g44
sg6
g7
sg8
g31
sg9
g45
sg10
g32
sg12
F-153686.0
sg14
F372205.0
sg15
g47
sg16
g33
sg17
F372205.0
sg19
g34
sg20
g48
sg21
g35
sg22
I0
sg23
g24
sg25
g36
sg26
F153686.0
sg27
g37
ssS'COLWELL WESLEY'
p86
(dp87
g3
F288542.0
sg4
F1758.0
sg5
F1490344.0
sg6
g7
sg8
F6.0
sg9
F1200000.0
sg10
S'wes.colwell@enron.com'
p88
sg12
g13
sg14
F698242.0
sg15
F16514.0
sg16
F0.006257110352673493
sg17
g18
sg19
F40.0
sg20
F101740.0
sg21
F11.0
sg22
I1
sg23
F-144062.0
sg25
F1132.0
sg26
F698242.0
sg27
F240.0
ssS'MULLER MARK S'
p89
(dp90
g3
F251654.0
sg4
F136.0
sg5
F3202070.0
sg6
F1725545.0
sg8
F0.75
sg9
F1100000.0
sg10
S's..muller@enron.com'
p91
sg12
F0.0
sg14
F1416848.0
sg15
g47
sg16
F0.0
sg17
F1056320.0
sg19
F16.0
sg20
F947.0
sg21
F0.0
sg22
I0
sg23
F-719000.0
sg25
F114.0
sg26
F360528.0
sg27
F12.0
ssS'JACKSON CHARLENE R'
p92
(dp93
g3
F288558.0
sg4
F258.0
sg5
F551174.0
sg6
g7
sg8
F0.44642857142857145
sg9
F250000.0
sg10
S'charlene.jackson@enron.com'
p94
sg12
F0.0
sg14
F725735.0
sg15
F10181.0
sg16
F0.07364341085271318
sg17
F185063.0
sg19
F56.0
sg20
F2435.0
sg21
F19.0
sg22
I0
sg23
g24
sg25
F117.0
sg26
F540672.0
sg27
F25.0
ssS'WESTFAHL RICHARD K'
p95
(dp96
g3
F63744.0
sg4
g30
sg5
F762135.0
sg6
F256191.0
sg8
g31
sg9
g45
sg10
S'dick.westfahl@enron.com'
p97
sg12
g13
sg14
F384930.0
sg15
F51870.0
sg16
g33
sg17
g18
sg19
g34
sg20
F401130.0
sg21
g35
sg22
I0
sg23
F-10800.0
sg25
g36
sg26
F384930.0
sg27
g37
ssS'WALTERS GARETH W'
p98
(dp99
g3
g43
sg4
g30
sg5
F87410.0
sg6
g7
sg8
g31
sg9
g45
sg10
g32
sg12
g13
sg14
F1030329.0
sg15
F33785.0
sg16
g33
sg17
F1030329.0
sg19
g34
sg20
g48
sg21
g35
sg22
I0
sg23
g24
sg25
g36
sg26
g70
sg27
g37
ssS'WALLS JR ROBERT H'
p100
(dp101
g3
F357091.0
sg4
F671.0
sg5
F1798780.0
sg6
F540751.0
sg8
F0.11643835616438356
sg9
F850000.0
sg10
S'rob.walls@enron.com'
p102
sg12
F0.0
sg14
F5898997.0
sg15
F50936.0
sg16
F0.0
sg17
F4346544.0
sg19
F146.0
sg20
F2.0
sg21
F0.0
sg22
I0
sg23
g24
sg25
F215.0
sg26
F1552453.0
sg27
F17.0
ssS'KITCHEN LOUISE'
p103
(dp104
g3
F271442.0
sg4
F8305.0
sg5
F3471141.0
sg6
g7
sg8
F0.14525462962962962
sg9
F3100000.0
sg10
S'louise.kitchen@enron.com'
p105
sg12
F0.0
sg14
F547143.0
sg15
F5774.0
sg16
F0.023359422034918725
sg17
F81042.0
sg19
F1728.0
sg20
F93925.0
sg21
F194.0
sg22
I0
sg23
g24
sg25
F3669.0
sg26
F466101.0
sg27
F251.0
ssS'CHAN RONNIE'
p106
(dp107
g3
g43
sg4
g30
sg5
g44
sg6
g7
sg8
g31
sg9
g45
sg10
g32
sg12
F-32460.0
sg14
F518319.5561666667
sg15
g47
sg16
g33
sg17
F518319.5561666667
sg19
g34
sg20
g48
sg21
g35
sg22
I0
sg23
F-98784.0
sg25
g36
sg26
F32460.0
sg27
g37
ssS'BELFER ROBERT'
p108
(dp109
g3
g43
sg4
g30
sg5
F102500.0
sg6
g7
sg8
g31
sg9
g45
sg10
g32
sg12
F44093.0
sg14
F-44093.0
sg15
g47
sg16
g33
sg17
F3285.0
sg19
g34
sg20
g48
sg21
g35
sg22
I0
sg23
g24
sg25
g36
sg26
F-91471.0
sg27
g37
ssS'SHANKMAN JEFFREY A'
p110
(dp111
g3
F304110.0
sg4
F3221.0
sg5
F3038702.0
sg6
F554422.0
sg8
F0.0350615441999254
sg9
F2000000.0
sg10
S'jeffrey.shankman@enron.com'
p112
sg12
F0.0
sg14
F2072035.0
sg15
F178979.0
sg16
F0.025768394908413535
sg17
F1441898.0
sg19
F2681.0
sg20
F1191.0
sg21
F83.0
sg22
I0
sg23
g24
sg25
F1730.0
sg26
F630137.0
sg27
F94.0
ssS'WODRASKA JOHN'
p113
(dp114
g3
g43
sg4
g30
sg5
F189583.0
sg6
g7
sg8
g31
sg9
g45
sg10
S'john.wodraska@enron.com'
p115
sg12
g13
sg14
g74
sg15
g47
sg16
g33
sg17
g18
sg19
g34
sg20
F189583.0
sg21
g35
sg22
I0
sg23
g24
sg25
g36
sg26
g70
sg27
g37
ssS'BERGSIEKER RICHARD P'
p116
(dp117
g3
F187922.0
sg4
F383.0
sg5
F618850.0
sg6
F180250.0
sg8
F0.06779661016949153
sg9
F250000.0
sg10
S'rick.bergsieker@enron.com'
p118
sg12
g13
sg14
F659249.0
sg15
F59175.0
sg16
F0.0
sg17
g18
sg19
F59.0
sg20
F427316.0
sg21
F0.0
sg22
I0
sg23
F-485813.0
sg25
F233.0
sg26
F659249.0
sg27
F4.0
ssS'URQUHART JOHN A'
p119
(dp120
g3
g43
sg4
g30
sg5
F228656.0
sg6
g7
sg8
g31
sg9
g45
sg10
g32
sg12
g13
sg14
g74
sg15
F228656.0
sg16
g33
sg17
g18
sg19
g34
sg20
g48
sg21
g35
sg22
I0
sg23
F-36666.0
sg25
g36
sg26
g70
sg27
g37
ssS'BIBI PHILIPPE A'
p121
(dp122
g3
F213625.0
sg4
F1607.0
sg5
F2047593.0
sg6
F369721.0
sg8
F0.575
sg9
F1000000.0
sg10
S'philippe.bibi@enron.com'
p123
sg12
F0.0
sg14
F1843816.0
sg15
F38559.0
sg16
F0.004978220286247666
sg17
F1465734.0
sg19
F40.0
sg20
F425688.0
sg21
F8.0
sg22
I0
sg23
g24
sg25
F1336.0
sg26
F378082.0
sg27
F23.0
ssS'PIRO JIM'
p124
(dp125
g3
g43
sg4
F58.0
sg5
g44
sg6
g7
sg8
F0.0
sg9
g45
sg10
S'jim.piro@enron.com'
p126
sg12
g13
sg14
F47304.0
sg15
g47
sg16
F0.017241379310344827
sg17
g18
sg19
F16.0
sg20
g48
sg21
F1.0
sg22
I0
sg23
g24
sg25
F3.0
sg26
F47304.0
sg27
F0.0
ssS'RIEKER PAULA H'
p127
(dp128
g3
F249201.0
sg4
F1328.0
sg5
F1099100.0
sg6
g7
sg8
F0.4268292682926829
sg9
F700000.0
sg10
S'paula.rieker@enron.com'
p129
sg12
F0.0
sg14
F1918887.0
sg15
F33271.0
sg16
F0.03614457831325301
sg17
F1635238.0
sg19
F82.0
sg20
F1950.0
sg21
F48.0
sg22
I1
sg23
F-100000.0
sg25
F1258.0
sg26
F283649.0
sg27
F35.0
ssS'WHALEY DAVID A'
p130
(dp131
g3
g43
sg4
g30
sg5
g44
sg6
g7
sg8
g31
sg9
g45
sg10
g32
sg12
g13
sg14
F98718.0
sg15
g47
sg16
g33
sg17
F98718.0
sg19
g34
sg20
g48
sg21
g35
sg22
I0
sg23
g24
sg25
g36
sg26
g70
sg27
g37
ssS'BECK SALLY W'
p132
(dp133
g3
F231330.0
sg4
F7315.0
sg5
F969068.0
sg6
g7
sg8
F0.033156804052498275
sg9
F700000.0
sg10
S'sally.beck@enron.com'
p134
sg12
g13
sg14
F126027.0
sg15
F37172.0
sg16
F0.052768284347231714
sg17
g18
sg19
F4343.0
sg20
F566.0
sg21
F386.0
sg22
I0
sg23
g24
sg25
F2639.0
sg26
F126027.0
sg27
F144.0
ssS'HAUG DAVID L'
p135
(dp136
g3
g43
sg4
F573.0
sg5
F475.0
sg6
g7
sg8
F0.21052631578947367
sg9
g45
sg10
S'david.haug@enron.com'
p137
sg12
g13
sg14
F2217299.0
sg15
F475.0
sg16
F0.012216404886561954
sg17
g18
sg19
F19.0
sg20
g48
sg21
F7.0
sg22
I0
sg23
g24
sg25
F471.0
sg26
F2217299.0
sg27
F4.0
ssS'ECHOLS JOHN B'
p138
(dp139
g3
F182245.0
sg4
g30
sg5
F2692324.0
sg6
F2234774.0
sg8
g31
sg9
F200000.0
sg10
S'john.echols@enron.com'
p140
sg12
F0.0
sg14
F1008941.0
sg15
F21530.0
sg16
g33
sg17
F601438.0
sg19
g34
sg20
F53775.0
sg21
g35
sg22
I0
sg23
g24
sg25
g36
sg26
F407503.0
sg27
g37
ssS'MENDELSOHN JOHN'
p141
(dp142
g3
g43
sg4
g30
sg5
F148.0
sg6
g7
sg8
g31
sg9
g45
sg10
g32
sg12
g13
sg14
g74
sg15
F148.0
sg16
g33
sg17
g18
sg19
g34
sg20
g48
sg21
g35
sg22
I0
sg23
F-103750.0
sg25
g36
sg26
g70
sg27
g37
ssS'HICKERSON GARY J'
p143
(dp144
g3
F211788.0
sg4
F1320.0
sg5
F2081796.0
sg6
F69223.0
sg8
F1.4814814814814814
sg9
F1700000.0
sg10
S'gary.hickerson@enron.com'
p145
sg12
g13
sg14
F441096.0
sg15
F98849.0
sg16
F0.0007575757575757576
sg17
g18
sg19
F27.0
sg20
F1936.0
sg21
F1.0
sg22
I0
sg23
g24
sg25
F900.0
sg26
F441096.0
sg27
F40.0
ssS'CLINE KENNETH W'
p146
(dp147
g3
g43
sg4
g30
sg5
g44
sg6
g7
sg8
g31
sg9
g45
sg10
g32
sg12
F-472568.0
sg14
F189518.0
sg15
g47
sg16
g33
sg17
F0.0
sg19
g34
sg20
g48
sg21
g35
sg22
I0
sg23
g24
sg25
g36
sg26
F662086.0
sg27
g37
ssS'LEWIS RICHARD'
p148
(dp149
g3
g43
sg4
F952.0
sg5
g44
sg6
g7
sg8
F0.38461538461538464
sg9
g45
sg10
S'richard.lewis@enron.com'
p150
sg12
g13
sg14
F850477.0
sg15
g47
sg16
F0.0
sg17
F850477.0
sg19
F26.0
sg20
g48
sg21
F0.0
sg22
I0
sg23
g24
sg25
F739.0
sg26
g70
sg27
F10.0
ssS'HAYES ROBERT E'
p151
(dp152
g3
g43
sg4
F504.0
sg5
F7961.0
sg6
g7
sg8
F1.3333333333333333
sg9
g45
sg10
S'robert.hayes@enron.com'
p153
sg12
g13
sg14
F151418.0
sg15
g47
sg16
F0.0
sg17
g18
sg19
F12.0
sg20
g48
sg21
F0.0
sg22
I0
sg23
g24
sg25
F50.0
sg26
F151418.0
sg27
F16.0
ssS'KOPPER MICHAEL J'
p154
(dp155
g3
F224305.0
sg4
g30
sg5
F2652612.0
sg6
F602671.0
sg8
g31
sg9
F800000.0
sg10
S'michael.kopper@enron.com'
p156
sg12
g13
sg14
F985032.0
sg15
F118134.0
sg16
g33
sg17
g18
sg19
g34
sg20
F907502.0
sg21
g35
sg22
I1
sg23
g24
sg25
g36
sg26
F985032.0
sg27
g37
ssS'LEFF DANIEL P'
p157
(dp158
g3
F273746.0
sg4
F2822.0
sg5
F2664228.0
sg6
F1387399.0
sg8
F1.0634920634920635
sg9
F1000000.0
sg10
S'dan.leff@enron.com'
p159
sg12
g13
sg14
F360528.0
sg15
g47
sg16
F0.004961020552799433
sg17
g18
sg19
F63.0
sg20
F3083.0
sg21
F14.0
sg22
I0
sg23
g24
sg25
F2672.0
sg26
F360528.0
sg27
F67.0
ssS'LAVORATO JOHN J'
p160
(dp161
g3
F339288.0
sg4
F7259.0
sg5
F10425757.0
sg6
F2035380.0
sg8
F0.20425531914893616
sg9
F8000000.0
sg10
S'john.lavorato@enron.com'
p162
sg12
F0.0
sg14
F5167144.0
sg15
F49537.0
sg16
F0.05661936905909905
sg17
F4158995.0
sg19
F2585.0
sg20
F1552.0
sg21
F411.0
sg22
I0
sg23
g24
sg25
F3962.0
sg26
F1008149.0
sg27
F528.0
ssS'BERBERIAN DAVID'
p163
(dp164
g3
F216582.0
sg4
g30
sg5
F228474.0
sg6
g7
sg8
g31
sg9
g45
sg10
S'david.berberian@enron.com'
p165
sg12
F0.0
sg14
F2493616.0
sg15
F11892.0
sg16
g33
sg17
F1624396.0
sg19
g34
sg20
g48
sg21
g35
sg22
I0
sg23
g24
sg25
g36
sg26
F869220.0
sg27
g37
ssS'DETMERING TIMOTHY J'
p166
(dp167
g3
F210500.0
sg4
g30
sg5
F1204583.0
sg6
F415657.0
sg8
g31
sg9
F425000.0
sg10
S'timothy.detmering@enron.com'
p168
sg12
F-315068.0
sg14
F2027865.0
sg15
F52255.0
sg16
g33
sg17
F2027865.0
sg19
g34
sg20
F1105.0
sg21
g35
sg22
I0
sg23
F-775241.0
sg25
g36
sg26
F315068.0
sg27
g37
ssS'WAKEHAM JOHN'
p169
(dp170
g3
g43
sg4
g30
sg5
F213071.0
sg6
g7
sg8
g31
sg9
g45
sg10
g32
sg12
g13
sg14
g74
sg15
F103773.0
sg16
g33
sg17
g18
sg19
g34
sg20
g48
sg21
g35
sg22
I0
sg23
g24
sg25
g36
sg26
g70
sg27
g37
ssS'POWERS WILLIAM'
p171
(dp172
g3
g43
sg4
F653.0
sg5
g44
sg6
g7
sg8
F0.0
sg9
g45
sg10
S'ken.powers@enron.com'
p173
sg12
g13
sg14
g74
sg15
g47
sg16
F0.0
sg17
g18
sg19
F26.0
sg20
g48
sg21
F0.0
sg22
I0
sg23
F-17500.0
sg25
F12.0
sg26
g70
sg27
F0.0
ssS'GOLD JOSEPH'
p174
(dp175
g3
F272880.0
sg4
g30
sg5
F2146973.0
sg6
F304805.0
sg8
g31
sg9
F750000.0
sg10
S'joe.gold@enron.com'
p176
sg12
F0.0
sg14
F877611.0
sg15
g47
sg16
g33
sg17
F436515.0
sg19
g34
sg20
F819288.0
sg21
g35
sg22
I0
sg23
g24
sg25
g36
sg26
F441096.0
sg27
g37
ssS'BANNANTINE JAMES M'
p177
(dp178
g3
F477.0
sg4
F566.0
sg5
F916197.0
sg6
g7
sg8
F1.3448275862068966
sg9
g45
sg10
S'james.bannantine@enron.com'
p179
sg12
F-560222.0
sg14
F5243487.0
sg15
F56301.0
sg16
F0.0
sg17
F4046157.0
sg19
F29.0
sg20
F864523.0
sg21
F0.0
sg22
I0
sg23
F-5104.0
sg25
F465.0
sg26
F1757552.0
sg27
F39.0
ssS'DUNCAN JOHN H'
p180
(dp181
g3
g43
sg4
g30
sg5
F77492.0
sg6
g7
sg8
g31
sg9
g45
sg10
g32
sg12
g13
sg14
F371750.0
sg15
g47
sg16
g33
sg17
F371750.0
sg19
g34
sg20
g48
sg21
g35
sg22
I0
sg23
F-25000.0
sg25
g36
sg26
g70
sg27
g37
ssS'SHAPIRO RICHARD S'
p182
(dp183
g3
F269076.0
sg4
F15149.0
sg5
F1057548.0
sg6
g7
sg8
F0.060905349794238686
sg9
F650000.0
sg10
S'richard.shapiro@enron.com'
p184
sg12
F0.0
sg14
F987001.0
sg15
F137767.0
sg16
F0.004290712258234867
sg17
F607837.0
sg19
F1215.0
sg20
F705.0
sg21
F65.0
sg22
I0
sg23
g24
sg25
F4527.0
sg26
F379164.0
sg27
F74.0
ssS'SHERRIFF JOHN R'
p185
(dp186
g3
F428780.0
sg4
F3187.0
sg5
F4335388.0
sg6
F554422.0
sg8
F0.30434782608695654
sg9
F1500000.0
sg10
S'john.sherriff@enron.com'
p187
sg12
F0.0
sg14
F3128982.0
sg15
g47
sg16
F0.0072168183244430495
sg17
F1835558.0
sg19
F92.0
sg20
F1852186.0
sg21
F23.0
sg22
I0
sg23
g24
sg25
F2103.0
sg26
F1293424.0
sg27
F28.0
ssS'SHELBY REX'
p188
(dp189
g3
F211844.0
sg4
F225.0
sg5
F2003885.0
sg6
g7
sg8
F0.3333333333333333
sg9
F200000.0
sg10
S'rex.shelby@enron.com'
p190
sg12
F0.0
sg14
F2493616.0
sg15
F22884.0
sg16
F0.06222222222222222
sg17
F1624396.0
sg19
F39.0
sg20
F1573324.0
sg21
F14.0
sg22
I1
sg23
F-4167.0
sg25
F91.0
sg26
F869220.0
sg27
F13.0
ssS'LEMAISTRE CHARLES'
p191
(dp192
g3
g43
sg4
g30
sg5
F87492.0
sg6
g7
sg8
g31
sg9
g45
sg10
g32
sg12
g13
sg14
F412878.0
sg15
g47
sg16
g33
sg17
F412878.0
sg19
g34
sg20
g48
sg21
g35
sg22
I0
sg23
F-25000.0
sg25
g36
sg26
g70
sg27
g37
ssS'DEFFNER JOSEPH M'
p193
(dp194
g3
F206121.0
sg4
F714.0
sg5
F1208649.0
sg6
F335349.0
sg8
F1.554054054054054
sg9
F600000.0
sg10
S'joseph.deffner@enron.com'
p195
sg12
F0.0
sg14
F159211.0
sg15
F41626.0
sg16
F0.0056022408963585435
sg17
F17378.0
sg19
F74.0
sg20
F25553.0
sg21
F4.0
sg22
I0
sg23
g24
sg25
F552.0
sg26
F141833.0
sg27
F115.0
ssS'KISHKILL JOSEPH G'
p196
(dp197
g3
F174246.0
sg4
g30
sg5
F704896.0
sg6
g7
sg8
g31
sg9
g45
sg10
S'joe.kishkill@enron.com'
p198
sg12
g13
sg14
F1034346.0
sg15
F116335.0
sg16
g33
sg17
g18
sg19
g34
sg20
F465357.0
sg21
g35
sg22
I0
sg23
F-51042.0
sg25
g36
sg26
F1034346.0
sg27
g37
ssS'WHALLEY LAWRENCE G'
p199
(dp200
g3
F510364.0
sg4
F6019.0
sg5
F4677574.0
sg6
F808346.0
sg8
F0.3345323741007194
sg9
F3000000.0
sg10
S'greg.whalley@enron.com'
p201
sg12
F0.0
sg14
F6079137.0
sg15
F57838.0
sg16
F0.003987373317826882
sg17
F3282960.0
sg19
F556.0
sg20
F301026.0
sg21
F24.0
sg22
I0
sg23
g24
sg25
F3920.0
sg26
F2796177.0
sg27
F186.0
ssS'MCCARTY DANNY J'
p202
(dp203
g3
g43
sg4
F1433.0
sg5
g44
sg6
g7
sg8
F0.11627906976744186
sg9
g45
sg10
S'danny.mccarty@enron.com'
p204
sg12
F0.0
sg14
F758931.0
sg15
g47
sg16
F0.0013956734124214933
sg17
F664375.0
sg19
F215.0
sg20
g48
sg21
F2.0
sg22
I0
sg23
g24
sg25
F508.0
sg26
F94556.0
sg27
F25.0
ssS'MCCONNELL MICHAEL S'
p205
(dp206
g3
F365038.0
sg4
F3329.0
sg5
F2101364.0
sg6
F554422.0
sg8
F0.03355215171407731
sg9
F1100000.0
sg10
S'mike.mcconnell@enron.com'
p207
sg12
F0.0
sg14
F3101279.0
sg15
F81364.0
sg16
F0.058275758486031844
sg17
F1623010.0
sg19
F2742.0
sg20
F540.0
sg21
F194.0
sg22
I0
sg23
g24
sg25
F2189.0
sg26
F1478269.0
sg27
F92.0
ssS'DELAINEY DAVID W'
p208
(dp209
g3
F365163.0
sg4
F3093.0
sg5
F4747979.0
sg6
F1294981.0
sg8
F0.021505376344086023
sg9
F3000000.0
sg10
S'david.delainey@enron.com'
p210
sg12
F0.0
sg14
F3614261.0
sg15
F86174.0
sg16
F0.19689621726479145
sg17
F2291113.0
sg19
F3069.0
sg20
F1661.0
sg21
F609.0
sg22
I1
sg23
g24
sg25
F2097.0
sg26
F1323148.0
sg27
F66.0
ssS'SULLIVAN-SHAKLOVITZ COLLEEN'
p211
(dp212
g3
F162779.0
sg4
g30
sg5
F999356.0
sg6
F554422.0
sg8
g31
sg9
F100000.0
sg10
g32
sg12
g13
sg14
F1362375.0
sg15
g47
sg16
g33
sg17
F1362375.0
sg19
g34
sg20
F162.0
sg21
g35
sg22
I0
sg23
g24
sg25
g36
sg26
g70
sg27
g37
ssS'WROBEL BRUCE'
p213
(dp214
g3
g43
sg4
g30
sg5
g44
sg6
g7
sg8
g31
sg9
g45
sg10
g32
sg12
g13
sg14
F139130.0
sg15
g47
sg16
g33
sg17
F139130.0
sg19
g34
sg20
g48
sg21
g35
sg22
I0
sg23
g24
sg25
g36
sg26
g70
sg27
g37
ssS'LINDHOLM TOD A'
p215
(dp216
g3
F236457.0
sg4
g30
sg5
F875889.0
sg6
F175000.0
sg8
g31
sg9
F200000.0
sg10
S'tod.lindholm@enron.com'
p217
sg12
F0.0
sg14
F3064208.0
sg15
F57727.0
sg16
g33
sg17
F2549361.0
sg19
g34
sg20
F2630.0
sg21
g35
sg22
I0
sg23
g24
sg25
g36
sg26
F514847.0
sg27
g37
ssS'MEYER JEROME J'
p218
(dp219
g3
g43
sg4
g30
sg5
F2151.0
sg6
g7
sg8
g31
sg9
g45
sg10
g32
sg12
g13
sg14
g74
sg15
F2151.0
sg16
g33
sg17
g18
sg19
g34
sg20
g48
sg21
g35
sg22
I0
sg23
F-38346.0
sg25
g36
sg26
g70
sg27
g37
ssS'LAY KENNETH L'
p220
(dp221
g3
F1072321.0
sg4
F4273.0
sg5
F103559793.0
sg6
F3600000.0
sg8
F3.4166666666666665
sg9
F7000000.0
sg10
S'kenneth.lay@enron.com'
p222
sg12
F0.0
sg14
F49110078.0
sg15
F99832.0
sg16
F0.003744441844137608
sg17
F34348384.0
sg19
F36.0
sg20
F10359729.0
sg21
F16.0
sg22
I1
sg23
F-300000.0
sg25
F2411.0
sg26
F14761694.0
sg27
F123.0
ssS'BUTTS ROBERT H'
p223
(dp224
g3
F261516.0
sg4
g30
sg5
F1271582.0
sg6
F175000.0
sg8
g31
sg9
F750000.0
sg10
S'bob.butts@enron.com'
p225
sg12
g13
sg14
F417619.0
sg15
F9410.0
sg16
g33
sg17
g18
sg19
g34
sg20
F150656.0
sg21
g35
sg22
I0
sg23
F-75000.0
sg25
g36
sg26
F417619.0
sg27
g37
ssS'OLSON CINDY K'
p226
(dp227
g3
F329078.0
sg4
F1184.0
sg5
F1321557.0
sg6
F100000.0
sg8
F0.38461538461538464
sg9
F750000.0
sg10
S'cindy.olson@enron.com'
p228
sg12
F0.0
sg14
F2606763.0
sg15
F63791.0
sg16
F0.01266891891891892
sg17
F1637034.0
sg19
F52.0
sg20
F972.0
sg21
F15.0
sg22
I0
sg23
g24
sg25
F856.0
sg26
F969729.0
sg27
F20.0
ssS'MCDONALD REBECCA'
p229
(dp230
g3
g43
sg4
F894.0
sg5
g44
sg6
g7
sg8
F4.153846153846154
sg9
g45
sg10
S'rebecca.mcdonald@enron.com'
p231
sg12
F0.0
sg14
F1691366.0
sg15
g47
sg16
F0.0011185682326621924
sg17
F757301.0
sg19
F13.0
sg20
g48
sg21
F1.0
sg22
I0
sg23
g24
sg25
F720.0
sg26
F934065.0
sg27
F54.0
ssS'CUMBERLAND MICHAEL S'
p232
(dp233
g3
F184899.0
sg4
g30
sg5
F807956.0
sg6
F275000.0
sg8
g31
sg9
F325000.0
sg10
g32
sg12
g13
sg14
F207940.0
sg15
F22344.0
sg16
g33
sg17
g18
sg19
g34
sg20
F713.0
sg21
g35
sg22
I0
sg23
g24
sg25
g36
sg26
F207940.0
sg27
g37
ssS'GAHN ROBERT S'
p234
(dp235
g3
F192008.0
sg4
g30
sg5
F900585.0
sg6
g7
sg8
g31
sg9
F509870.0
sg10
g32
sg12
F0.0
sg14
F318607.0
sg15
F50080.0
sg16
g33
sg17
F83237.0
sg19
g34
sg20
F76547.0
sg21
g35
sg22
I0
sg23
F-1042.0
sg25
g36
sg26
F235370.0
sg27
g37
ssS'MCCLELLAN GEORGE'
p236
(dp237
g3
F263413.0
sg4
F1744.0
sg5
F1318763.0
sg6
g7
sg8
F1.0612244897959184
sg9
F900000.0
sg10
S'george.mcclellan@enron.com'
p238
sg12
F0.0
sg14
F947861.0
sg15
F228763.0
sg16
F0.0
sg17
F506765.0
sg19
F49.0
sg20
F51587.0
sg21
F0.0
sg22
I0
sg23
F-125000.0
sg25
F1469.0
sg26
F441096.0
sg27
F52.0
ssS'HERMANN ROBERT J'
p239
(dp240
g3
F262663.0
sg4
g30
sg5
F1297461.0
sg6
F150000.0
sg8
g31
sg9
F700000.0
sg10
S'robert.hermann@enron.com'
p241
sg12
F0.0
sg14
F668132.0
sg15
F48357.0
sg16
g33
sg17
F187500.0
sg19
g34
sg20
F416441.0
sg21
g35
sg22
I0
sg23
F-280000.0
sg25
g36
sg26
F480632.0
sg27
g37
ssS'SCRIMSHAW MATTHEW'
p242
(dp243
g3
g43
sg4
g30
sg5
g44
sg6
g7
sg8
g31
sg9
g45
sg10
S'matthew.scrimshaw@enron.com'
p244
sg12
g13
sg14
F759557.0
sg15
g47
sg16
g33
sg17
F759557.0
sg19
g34
sg20
g48
sg21
g35
sg22
I0
sg23
g24
sg25
g36
sg26
g70
sg27
g37
ssS'GATHMANN WILLIAM D'
p245
(dp246
g3
g43
sg4
g30
sg5
g44
sg6
g7
sg8
g31
sg9
g45
sg10
g32
sg12
F-72419.0
sg14
F1945360.0
sg15
g47
sg16
g33
sg17
F1753766.0
sg19
g34
sg20
g48
sg21
g35
sg22
I0
sg23
g24
sg25
g36
sg26
F264013.0
sg27
g37
ssS'HAEDICKE MARK E'
p247
(dp248
g3
F374125.0
sg4
F4009.0
sg5
F3859065.0
sg6
F983346.0
sg8
F0.09273570324574962
sg9
F1150000.0
sg10
S'mark.haedicke@enron.com'
p249
sg12
F-329825.0
sg14
F803094.0
sg15
F76169.0
sg16
F0.015215764529807932
sg17
F608750.0
sg19
F1941.0
sg20
F52382.0
sg21
F61.0
sg22
I0
sg23
F-934484.0
sg25
F1847.0
sg26
F524169.0
sg27
F180.0
ssS'BOWEN JR RAYMOND M'
p250
(dp251
g3
F278601.0
sg4
F1858.0
sg5
F2669589.0
sg6
F974293.0
sg8
F5.185185185185185
sg9
F1350000.0
sg10
S'raymond.bowen@enron.com'
p252
sg12
g13
sg14
F252055.0
sg15
F65907.0
sg16
F0.008073196986006458
sg17
g18
sg19
F27.0
sg20
F1621.0
sg21
F15.0
sg22
I1
sg23
F-833.0
sg25
F1593.0
sg26
F252055.0
sg27
F140.0
ssS'GILLIS JOHN'
p253
(dp254
g3
g43
sg4
g30
sg5
g44
sg6
g7
sg8
g31
sg9
g45
sg10
g32
sg12
F0.0
sg14
F85641.0
sg15
g47
sg16
g33
sg17
F9803.0
sg19
g34
sg20
g48
sg21
g35
sg22
I0
sg23
g24
sg25
g36
sg26
F75838.0
sg27
g37
ssS'FITZGERALD JAY L'
p255
(dp256
g3
F199157.0
sg4
F936.0
sg5
F1414857.0
sg6
F556416.0
sg8
F0.0625
sg9
F350000.0
sg10
S'jay.fitzgerald@enron.com'
p257
sg12
F0.0
sg14
F1621236.0
sg15
F23870.0
sg16
F0.008547008547008548
sg17
F664461.0
sg19
F16.0
sg20
F285414.0
sg21
F8.0
sg22
I0
sg23
g24
sg25
F723.0
sg26
F956775.0
sg27
F1.0
ssS'MORAN MICHAEL P'
p258
(dp259
g3
g43
sg4
F672.0
sg5
g44
sg6
g7
sg8
F0.0
sg9
g45
sg10
S'michael.moran@enron.com'
p260
sg12
F0.0
sg14
F221141.0
sg15
g47
sg16
F0.0
sg17
F59539.0
sg19
F19.0
sg20
g48
sg21
F0.0
sg22
I0
sg23
g24
sg25
F127.0
sg26
F161602.0
sg27
F0.0
ssS'REDMOND BRIAN L'
p261
(dp262
g3
F96840.0
sg4
F1671.0
sg5
F111529.0
sg6
g7
sg8
F0.9230769230769231
sg9
g45
sg10
S'brian.redmond@enron.com'
p263
sg12
F0.0
sg14
F7890324.0
sg15
F14689.0
sg16
F0.029323758228605626
sg17
F7509039.0
sg19
F221.0
sg20
g48
sg21
F49.0
sg22
I0
sg23
g24
sg25
F1063.0
sg26
F381285.0
sg27
F204.0
ssS'BAZELIDES PHILIP J'
p264
(dp265
g3
F80818.0
sg4
g30
sg5
F860136.0
sg6
F93750.0
sg8
g31
sg9
g45
sg10
g32
sg12
g13
sg14
F1599641.0
sg15
g47
sg16
g33
sg17
F1599641.0
sg19
g34
sg20
F874.0
sg21
g35
sg22
I0
sg23
g24
sg25
g36
sg26
g70
sg27
g37
ssS'BELDEN TIMOTHY N'
p266
(dp267
g3
F213999.0
sg4
F7991.0
sg5
F5501630.0
sg6
g7
sg8
F0.47107438016528924
sg9
F5249999.0
sg10
S'tim.belden@enron.com'
p268
sg12
F0.0
sg14
F1110705.0
sg15
F17355.0
sg16
F0.013515204605180828
sg17
F953136.0
sg19
F484.0
sg20
F210698.0
sg21
F108.0
sg22
I1
sg23
F-2334434.0
sg25
F5521.0
sg26
F157569.0
sg27
F228.0
ssS'DURAN WILLIAM D'
p269
(dp270
g3
F210692.0
sg4
F904.0
sg5
F2093263.0
sg6
F1105218.0
sg8
F8.833333333333334
sg9
F750000.0
sg10
S'w.duran@enron.com'
p271
sg12
F0.0
sg14
F1640910.0
sg15
F25785.0
sg16
F0.00331858407079646
sg17
F1451869.0
sg19
F12.0
sg20
F1568.0
sg21
F3.0
sg22
I0
sg23
g24
sg25
F599.0
sg26
F189041.0
sg27
F106.0
ssS'THORN TERENCE H'
p272
(dp273
g3
F222093.0
sg4
F266.0
sg5
F911453.0
sg6
F200000.0
sg8
F0.0
sg9
g45
sg10
S'terence.thorn@enron.com'
p274
sg12
F0.0
sg14
F4817796.0
sg15
F46145.0
sg16
F0.0
sg17
F4452476.0
sg19
F41.0
sg20
F426629.0
sg21
F0.0
sg22
I0
sg23
g24
sg25
F73.0
sg26
F365320.0
sg27
F0.0
ssS'FASTOW ANDREW S'
p275
(dp276
g3
F440698.0
sg4
g30
sg5
F2424083.0
sg6
F1736055.0
sg8
g31
sg9
F1300000.0
sg10
S'andrew.fastow@enron.com'
p277
sg12
g13
sg14
F1794412.0
sg15
F55921.0
sg16
g33
sg17
g18
sg19
g34
sg20
F277464.0
sg21
g35
sg22
I1
sg23
F-1386055.0
sg25
g36
sg26
F1794412.0
sg27
g37
ssS'FOY JOE'
p278
(dp279
g3
g43
sg4
F57.0
sg5
F181755.0
sg6
g7
sg8
F0.0
sg9
g45
sg10
S'tracy.foy@enron.com'
p280
sg12
g13
sg14
F343434.0
sg15
g47
sg16
F0.0
sg17
F343434.0
sg19
F13.0
sg20
g48
sg21
F0.0
sg22
I0
sg23
g24
sg25
F2.0
sg26
g70
sg27
F0.0
ssS'CALGER CHRISTOPHER F'
p281
(dp282
g3
F240189.0
sg4
F2598.0
sg5
F1639297.0
sg6
F375304.0
sg8
F1.3819444444444444
sg9
F1250000.0
sg10
S'christopher.calger@enron.com'
p283
sg12
g13
sg14
F126027.0
sg15
F35818.0
sg16
F0.00962278675904542
sg17
g18
sg19
F144.0
sg20
F486.0
sg21
F25.0
sg22
I1
sg23
F-262500.0
sg25
F2188.0
sg26
F126027.0
sg27
F199.0
ssS'RICE KENNETH D'
p284
(dp285
g3
F420636.0
sg4
F905.0
sg5
F505050.0
sg6
F1617011.0
sg8
F2.3333333333333335
sg9
F1750000.0
sg10
S'ken.rice@enron.com'
p286
sg12
F0.0
sg14
F22542539.0
sg15
F46950.0
sg16
F0.004419889502762431
sg17
F19794175.0
sg19
F18.0
sg20
F174839.0
sg21
F4.0
sg22
I1
sg23
F-3504386.0
sg25
F864.0
sg26
F2748364.0
sg27
F42.0
ssS'KAMINSKI WINCENTY J'
p287
(dp288
g3
F275101.0
sg4
F4607.0
sg5
F1086821.0
sg6
F323466.0
sg8
F0.002853563474387528
sg9
F400000.0
sg10
S'vince.kaminski@enron.com'
p289
sg12
F0.0
sg14
F976037.0
sg15
F83585.0
sg16
F0.03711742999782939
sg17
F850010.0
sg19
F14368.0
sg20
F4669.0
sg21
F171.0
sg22
I0
sg23
g24
sg25
F583.0
sg26
F126027.0
sg27
F41.0
ssS'COX DAVID'
p290
(dp291
g3
F314288.0
sg4
F102.0
sg5
F1101393.0
sg6
g7
sg8
F0.0
sg9
F800000.0
sg10
S'chip.cox@enron.com'
p292
sg12
F0.0
sg14
F495633.0
sg15
F27861.0
sg16
F0.0392156862745098
sg17
F117551.0
sg19
F33.0
sg20
F494.0
sg21
F4.0
sg22
I0
sg23
F-41250.0
sg25
F71.0
sg26
F378082.0
sg27
F0.0
ssS'OVERDYKE JR JERE C'
p293
(dp294
g3
F94941.0
sg4
g30
sg5
F249787.0
sg6
F135836.0
sg8
g31
sg9
g45
sg10
S'jere.overdyke@enron.com'
p295
sg12
F0.0
sg14
F7307594.0
sg15
F18834.0
sg16
g33
sg17
F5266578.0
sg19
g34
sg20
F176.0
sg21
g35
sg22
I0
sg23
g24
sg25
g36
sg26
F2041016.0
sg27
g37
ssS'PEREIRA PAULO V. FERRAZ'
p296
(dp297
g3
g43
sg4
g30
sg5
F27942.0
sg6
g7
sg8
g31
sg9
g45
sg10
g32
sg12
g13
sg14
g74
sg15
F27942.0
sg16
g33
sg17
g18
sg19
g34
sg20
g48
sg21
g35
sg22
I0
sg23
F-101250.0
sg25
g36
sg26
g70
sg27
g37
ssS'STABLER FRANK'
p298
(dp299
g3
F239502.0
sg4
g30
sg5
F1112087.0
sg6
g7
sg8
g31
sg9
F500000.0
sg10
S'frank.stabler@enron.com'
p300
sg12
g13
sg14
F511734.0
sg15
F16514.0
sg16
g33
sg17
g18
sg19
g34
sg20
F356071.0
sg21
g35
sg22
I0
sg23
g24
sg25
g36
sg26
F511734.0
sg27
g37
ssS'SKILLING JEFFREY K'
p301
(dp302
g3
F1111258.0
sg4
F3627.0
sg5
F8682716.0
sg6
F1920000.0
sg8
F0.8148148148148148
sg9
F5600000.0
sg10
S'jeff.skilling@enron.com'
p303
sg12
F0.0
sg14
F26093672.0
sg15
F29336.0
sg16
F0.008271298593879239
sg17
F19250000.0
sg19
F108.0
sg20
F22122.0
sg21
F30.0
sg22
I1
sg23
g24
sg25
F2042.0
sg26
F6843672.0
sg27
F88.0
ssS'BLAKE JR. NORMAN P'
p304
(dp305
g3
g43
sg4
g30
sg5
F1279.0
sg6
g7
sg8
g31
sg9
g45
sg10
g32
sg12
g13
sg14
g74
sg15
F1279.0
sg16
g33
sg17
g18
sg19
g34
sg20
g48
sg21
g35
sg22
I0
sg23
F-113784.0
sg25
g36
sg26
g70
sg27
g37
ssS'SHERRICK JEFFREY B'
p306
(dp307
g3
g43
sg4
F613.0
sg5
g44
sg6
g7
sg8
F1.56
sg9
g45
sg10
S'jeffrey.sherrick@enron.com'
p308
sg12
F0.0
sg14
F1832468.0
sg15
g47
sg16
F0.02936378466557912
sg17
F1426469.0
sg19
F25.0
sg20
g48
sg21
F18.0
sg22
I0
sg23
g24
sg25
F583.0
sg26
F405999.0
sg27
F39.0
ssS'PRENTICE JAMES'
p309
(dp310
g3
g43
sg4
g30
sg5
F564348.0
sg6
g7
sg8
g31
sg9
g45
sg10
S'james.prentice@enron.com'
p311
sg12
F0.0
sg14
F1095040.0
sg15
g47
sg16
g33
sg17
F886231.0
sg19
g34
sg20
g48
sg21
g35
sg22
I0
sg23
g24
sg25
g36
sg26
F208809.0
sg27
g37
ssS'GRAY RODNEY'
p312
(dp313
g3
F6615.0
sg4
g30
sg5
F1146658.0
sg6
F365625.0
sg8
g31
sg9
g45
sg10
g32
sg12
g13
sg14
g74
sg15
g47
sg16
g33
sg17
g18
sg19
g34
sg20
F680833.0
sg21
g35
sg22
I0
sg23
g24
sg25
g36
sg26
g70
sg27
g37
ssS'PICKERING MARK R'
p314
(dp315
g3
F655037.0
sg4
F898.0
sg5
F1386690.0
sg6
g7
sg8
F0.1044776119402985
sg9
F300000.0
sg10
S'mark.pickering@enron.com'
p316
sg12
g13
sg14
F28798.0
sg15
F31653.0
sg16
F0.0
sg17
F28798.0
sg19
F67.0
sg20
g48
sg21
F0.0
sg22
I0
sg23
g24
sg25
F728.0
sg26
g70
sg27
F7.0
ssS'NOLES JAMES L'
p317
(dp318
g3
g43
sg4
g30
sg5
F774401.0
sg6
g7
sg8
g31
sg9
g45
sg10
g32
sg12
F-94556.0
sg14
F368705.0
sg15
g47
sg16
g33
sg17
F0.0
sg19
g34
sg20
g48
sg21
g35
sg22
I0
sg23
g24
sg25
g36
sg26
F463261.0
sg27
g37
ssS'KEAN STEVEN J'
p319
(dp320
g3
F404338.0
sg4
F12754.0
sg5
F1747522.0
sg6
F300000.0
sg8
F0.020713123243083296
sg9
F1000000.0
sg10
S'steven.kean@enron.com'
p321
sg12
F0.0
sg14
F6153642.0
sg15
F41953.0
sg16
F0.03034342167163243
sg17
F2022048.0
sg19
F6759.0
sg20
F1231.0
sg21
F387.0
sg22
I0
sg23
g24
sg25
F3639.0
sg26
F4131594.0
sg27
F140.0
ssS'FOWLER PEGGY'
p322
(dp323
g3
g43
sg4
F517.0
sg5
g44
sg6
g7
sg8
F0.0
sg9
g45
sg10
S'kulvinder.fowler@enron.com'
p324
sg12
F0.0
sg14
F1884748.0
sg15
g47
sg16
F0.0
sg17
F1324578.0
sg19
F36.0
sg20
g48
sg21
F0.0
sg22
I0
sg23
g24
sg25
F10.0
sg26
F560170.0
sg27
F0.0
ssS'WASAFF GEORGE'
p325
(dp326
g3
F259996.0
sg4
F400.0
sg5
F1034395.0
sg6
F200000.0
sg8
F0.7333333333333333
sg9
F325000.0
sg10
S'george.wasaff@enron.com'
p327
sg12
F0.0
sg14
F2056427.0
sg15
g47
sg16
F0.0175
sg17
F1668260.0
sg19
F30.0
sg20
F1425.0
sg21
F7.0
sg22
I0
sg23
F-583325.0
sg25
F337.0
sg26
F388167.0
sg27
F22.0
ssS'WHITE JR THOMAS E'
p328
(dp329
g3
F317543.0
sg4
g30
sg5
F1934359.0
sg6
g7
sg8
g31
sg9
F450000.0
sg10
S'thomas.white@enron.com'
p330
sg12
F0.0
sg14
F15144123.0
sg15
F81353.0
sg16
g33
sg17
F1297049.0
sg19
g34
sg20
F1085463.0
sg21
g35
sg22
I0
sg23
g24
sg25
g36
sg26
F13847074.0
sg27
g37
ssS'CHRISTODOULOU DIOMEDES'
p331
(dp332
g3
g43
sg4
g30
sg5
g44
sg6
g7
sg8
g31
sg9
g45
sg10
S'diomedes.christodoulou@enron.com'
p333
sg12
F0.0
sg14
F6077885.0
sg15
g47
sg16
g33
sg17
F5127155.0
sg19
g34
sg20
g48
sg21
g35
sg22
I0
sg23
g24
sg25
g36
sg26
F950730.0
sg27
g37
ssS'ALLEN PHILLIP K'
p334
(dp335
g3
F201955.0
sg4
F2902.0
sg5
F4484442.0
sg6
F304805.0
sg8
F0.0214123006833713
sg9
F4175000.0
sg10
S'phillip.allen@enron.com'
p336
sg12
F-126027.0
sg14
F1729541.0
sg15
F13868.0
sg16
F0.022398345968297727
sg17
F1729541.0
sg19
F2195.0
sg20
F152.0
sg21
F65.0
sg22
I0
sg23
F-3081055.0
sg25
F1407.0
sg26
F126027.0
sg27
F47.0
ssS'SHARP VICTORIA T'
p337
(dp338
g3
F248146.0
sg4
F3136.0
sg5
F1576511.0
sg6
F422158.0
sg8
F0.17647058823529413
sg9
F600000.0
sg10
S'vicki.sharp@enron.com'
p339
sg12
F0.0
sg14
F494136.0
sg15
F116337.0
sg16
F0.001913265306122449
sg17
F281073.0
sg19
F136.0
sg20
F2401.0
sg21
F6.0
sg22
I0
sg23
g24
sg25
F2477.0
sg26
F213063.0
sg27
F24.0
ssS'JAEDICKE ROBERT'
p340
(dp341
g3
g43
sg4
g30
sg5
F83750.0
sg6
g7
sg8
g31
sg9
g45
sg10
g32
sg12
F-44093.0
sg14
F431750.0
sg15
g47
sg16
g33
sg17
F431750.0
sg19
g34
sg20
g48
sg21
g35
sg22
I0
sg23
F-25000.0
sg25
g36
sg26
F44093.0
sg27
g37
ssS'WINOKUR JR. HERBERT S'
p342
(dp343
g3
g43
sg4
g30
sg5
F84992.0
sg6
g7
sg8
g31
sg9
g45
sg10
g32
sg12
g13
sg14
g74
sg15
F1413.0
sg16
g33
sg17
g18
sg19
g34
sg20
g48
sg21
g35
sg22
I0
sg23
F-25000.0
sg25
g36
sg26
g70
sg27
g37
ssS'BROWN MICHAEL'
p344
(dp345
g3
g43
sg4
F1486.0
sg5
F49288.0
sg6
g7
sg8
F0.3170731707317073
sg9
g45
sg10
S'michael.brown@enron.com'
p346
sg12
g13
sg14
g74
sg15
F49288.0
sg16
F0.0006729475100942127
sg17
g18
sg19
F41.0
sg20
g48
sg21
F1.0
sg22
I0
sg23
g24
sg25
F761.0
sg26
g70
sg27
F13.0
ssS'BADUM JAMES P'
p347
(dp348
g3
g43
sg4
g30
sg5
F182466.0
sg6
g7
sg8
g31
sg9
g45
sg10
g32
sg12
g13
sg14
F257817.0
sg15
F3486.0
sg16
g33
sg17
F257817.0
sg19
g34
sg20
g48
sg21
g35
sg22
I0
sg23
g24
sg25
g36
sg26
g70
sg27
g37
ssS'HUGHES JAMES A'
p349
(dp350
g3
g43
sg4
F719.0
sg5
g44
sg6
g7
sg8
F1.0294117647058822
sg9
g45
sg10
S'james.hughes@enron.com'
p351
sg12
F0.0
sg14
F1118394.0
sg15
g47
sg16
F0.006954102920723227
sg17
F754966.0
sg19
F34.0
sg20
g48
sg21
F5.0
sg22
I0
sg23
g24
sg25
F589.0
sg26
F363428.0
sg27
F35.0
ssS'REYNOLDS LAWRENCE'
p352
(dp353
g3
F76399.0
sg4
g30
sg5
F394475.0
sg6
F156250.0
sg8
g31
sg9
F100000.0
sg10
g32
sg12
F-140264.0
sg14
F4221891.0
sg15
F8409.0
sg16
g33
sg17
F4160672.0
sg19
g34
sg20
F202052.0
sg21
g35
sg22
I0
sg23
F-200000.0
sg25
g36
sg26
F201483.0
sg27
g37
ssS'DIMICHELE RICHARD G'
p354
(dp355
g3
F262788.0
sg4
g30
sg5
F2368151.0
sg6
F694862.0
sg8
g31
sg9
F1000000.0
sg10
S'richard.dimichele@enron.com'
p356
sg12
F0.0
sg14
F8317782.0
sg15
F35812.0
sg16
g33
sg17
F8191755.0
sg19
g34
sg20
F374689.0
sg21
g35
sg22
I0
sg23
g24
sg25
g36
sg26
F126027.0
sg27
g37
ssS'BHATNAGAR SANJAY'
p357
(dp358
g3
g43
sg4
F523.0
sg5
F15456290.0
sg6
g7
sg8
F0.0
sg9
g45
sg10
S'sanjay.bhatnagar@enron.com'
p359
sg12
F15456290.0
sg14
F15456290.0
sg15
g47
sg16
F0.0019120458891013384
sg17
F2604490.0
sg19
F29.0
sg20
F137864.0
sg21
F1.0
sg22
I0
sg23
g24
sg25
F463.0
sg26
F-2604490.0
sg27
F0.0
ssS'CARTER REBECCA C'
p360
(dp361
g3
F261809.0
sg4
F312.0
sg5
F477557.0
sg6
F75000.0
sg8
F1.9333333333333333
sg9
F300000.0
sg10
S'rebecca.carter@enron.com'
p362
sg12
F-307301.0
sg14
F1978766.347353572
sg15
g47
sg16
F0.022435897435897436
sg17
F1978766.347353572
sg19
F15.0
sg20
F540.0
sg21
F7.0
sg22
I0
sg23
F-159792.0
sg25
F196.0
sg26
F307301.0
sg27
F29.0
ssS'BUCHANAN HAROLD G'
p363
(dp364
g3
F248017.0
sg4
F1088.0
sg5
F1054637.0
sg6
F304805.0
sg8
F0.0
sg9
F500000.0
sg10
S'john.buchanan@enron.com'
p365
sg12
F0.0
sg14
F1014505.0
sg15
F600.0
sg16
F0.0
sg17
F825464.0
sg19
F125.0
sg20
F1215.0
sg21
F0.0
sg22
I0
sg23
g24
sg25
F23.0
sg26
F189041.0
sg27
F0.0
ssS'YEAP SOON'
p366
(dp367
g3
g43
sg4
g30
sg5
F55097.0
sg6
g7
sg8
g31
sg9
g45
sg10
g32
sg12
g13
sg14
F192758.0
sg15
F55097.0
sg16
g33
sg17
F192758.0
sg19
g34
sg20
g48
sg21
g35
sg22
I0
sg23
g24
sg25
g36
sg26
g70
sg27
g37
ssS'MURRAY JULIA H'
p368
(dp369
g3
F229284.0
sg4
F2192.0
sg5
F812194.0
sg6
F125000.0
sg8
F0.24444444444444444
sg9
F400000.0
sg10
S'julia.murray@enron.com'
p370
sg12
F0.0
sg14
F597461.0
sg15
F57580.0
sg16
F0.0009124087591240876
sg17
F400478.0
sg19
F45.0
sg20
F330.0
sg21
F2.0
sg22
I0
sg23
g24
sg25
F395.0
sg26
F196983.0
sg27
F11.0
ssS'GARLAND C KEVIN'
p371
(dp372
g3
F231946.0
sg4
F209.0
sg5
F1566469.0
sg6
F375304.0
sg8
F0.22727272727272727
sg9
F850000.0
sg10
S'kevin.garland@enron.com'
p373
sg12
F0.0
sg14
F896153.0
sg15
F48405.0
sg16
F0.1291866028708134
sg17
F636246.0
sg19
F44.0
sg20
F60814.0
sg21
F27.0
sg22
I0
sg23
g24
sg25
F178.0
sg26
F259907.0
sg27
F10.0
ssS'DODSON KEITH'
p374
(dp375
g3
F221003.0
sg4
F176.0
sg5
F319941.0
sg6
g7
sg8
F0.7142857142857143
sg9
F70000.0
sg10
S'keith.dodson@enron.com'
p376
sg12
g13
sg14
g74
sg15
F28164.0
sg16
F0.017045454545454544
sg17
g18
sg19
F14.0
sg20
F774.0
sg21
F3.0
sg22
I0
sg23
g24
sg25
F114.0
sg26
g70
sg27
F10.0
ssS'YEAGER F SCOTT'
p377
(dp378
g3
F158403.0
sg4
g30
sg5
F360300.0
sg6
g7
sg8
g31
sg9
g45
sg10
S'scott.yeager@enron.com'
p379
sg12
F0.0
sg14
F11884758.0
sg15
F53947.0
sg16
g33
sg17
F8308552.0
sg19
g34
sg20
F147950.0
sg21
g35
sg22
I1
sg23
g24
sg25
g36
sg26
F3576206.0
sg27
g37
ssS'HIRKO JOSEPH'
p380
(dp381
g3
g43
sg4
g30
sg5
F91093.0
sg6
g7
sg8
g31
sg9
g45
sg10
S'joe.hirko@enron.com'
p382
sg12
g13
sg14
F30766064.0
sg15
F77978.0
sg16
g33
sg17
F30766064.0
sg19
g34
sg20
F2856.0
sg21
g35
sg22
I1
sg23
g24
sg25
g36
sg26
g70
sg27
g37
ssS'DIETRICH JANET R'
p383
(dp384
g3
F250100.0
sg4
F2572.0
sg5
F1410464.0
sg6
F556416.0
sg8
F4.841269841269841
sg9
F600000.0
sg10
S'janet.dietrich@enron.com'
p385
sg12
F0.0
sg14
F1865087.0
sg15
F3475.0
sg16
F0.005443234836702955
sg17
F1550019.0
sg19
F63.0
sg20
F473.0
sg21
F14.0
sg22
I0
sg23
g24
sg25
F1902.0
sg26
F315068.0
sg27
F305.0
ssS'DERRICK JR. JAMES V'
p386
(dp387
g3
F492375.0
sg4
F2181.0
sg5
F550981.0
sg6
F484000.0
sg8
F0.0704070407040704
sg9
F800000.0
sg10
S'james.derrick@enron.com'
p388
sg12
F-1787380.0
sg14
F8831913.0
sg15
F51124.0
sg16
F0.009170105456212746
sg17
F8831913.0
sg19
F909.0
sg20
F7482.0
sg21
F20.0
sg22
I0
sg23
F-1284000.0
sg25
F1401.0
sg26
F1787380.0
sg27
F64.0
ssS'FREVERT MARK A'
p389
(dp390
g3
F1060932.0
sg4
F3275.0
sg5
F17252530.0
sg6
F1617011.0
sg8
F11.523809523809524
sg9
F2000000.0
sg10
S'mark.frevert@enron.com'
p391
sg12
F0.0
sg14
F14622185.0
sg15
F86987.0
sg16
F0.00183206106870229
sg17
F10433518.0
sg19
F21.0
sg20
F7427621.0
sg21
F6.0
sg22
I0
sg23
F-3367011.0
sg25
F2979.0
sg26
F4188667.0
sg27
F242.0
ssS'PAI LOU L'
p392
(dp393
g3
F261879.0
sg4
g30
sg5
F3123383.0
sg6
g7
sg8
g31
sg9
F1000000.0
sg10
S'lou.pai@enron.com'
p394
sg12
F0.0
sg14
F23817930.0
sg15
F32047.0
sg16
g33
sg17
F15364167.0
sg19
g34
sg20
F1829457.0
sg21
g35
sg22
I0
sg23
g24
sg25
g36
sg26
F8453763.0
sg27
g37
ssS'BAY FRANKLIN R'
p395
(dp396
g3
F239671.0
sg4
g30
sg5
F827696.0
sg6
g7
sg8
g31
sg9
F400000.0
sg10
S'frank.bay@enron.com'
p397
sg12
F-82782.0
sg14
F63014.0
sg15
F129142.0
sg16
g33
sg17
F0.0
sg19
g34
sg20
F69.0
sg21
g35
sg22
I0
sg23
F-201641.0
sg25
g36
sg26
F145796.0
sg27
g37
ssS'HAYSLETT RODERICK J'
p398
(dp399
g3
g43
sg4
F2649.0
sg5
g44
sg6
g7
sg8
F0.03298774740810556
sg9
g45
sg10
S'rod.hayslett@enron.com'
p400
sg12
g13
sg14
F346663.0
sg15
g47
sg16
F0.014345035862589657
sg17
g18
sg19
F1061.0
sg20
g48
sg21
F38.0
sg22
I0
sg23
g24
sg25
F571.0
sg26
F346663.0
sg27
F35.0
ssS'FUGH JOHN L'
p401
(dp402
g3
g43
sg4
g30
sg5
F50591.0
sg6
g7
sg8
g31
sg9
g45
sg10
g32
sg12
g13
sg14
F176378.0
sg15
g47
sg16
g33
sg17
F176378.0
sg19
g34
sg20
g48
sg21
g35
sg22
I0
sg23
g24
sg25
g36
sg26
g70
sg27
g37
ssS'FALLON JAMES B'
p403
(dp404
g3
F304588.0
sg4
F1755.0
sg5
F3676340.0
sg6
F374347.0
sg8
F0.56
sg9
F2500000.0
sg10
S'jim.fallon@enron.com'
p405
sg12
F0.0
sg14
F2332399.0
sg15
F95924.0
sg16
F0.021082621082621083
sg17
F940257.0
sg19
F75.0
sg20
F401481.0
sg21
F37.0
sg22
I0
sg23
g24
sg25
F1604.0
sg26
F1392142.0
sg27
F42.0
ssS'KOENIG MARK E'
p406
(dp407
g3
F309946.0
sg4
F2374.0
sg5
F1587421.0
sg6
F300000.0
sg8
F0.8688524590163934
sg9
F700000.0
sg10
S'mark.koenig@enron.com'
p408
sg12
F0.0
sg14
F1920055.0
sg15
F127017.0
sg16
F0.006318449873631003
sg17
F671737.0
sg19
F61.0
sg20
F150458.0
sg21
F15.0
sg22
I1
sg23
g24
sg25
F2271.0
sg26
F1248318.0
sg27
F53.0
ssS'SAVAGE FRANK'
p409
(dp410
g3
g43
sg4
g30
sg5
F3750.0
sg6
g7
sg8
g31
sg9
g45
sg10
g32
sg12
g13
sg14
g74
sg15
g47
sg16
g33
sg17
g18
sg19
g34
sg20
g48
sg21
g35
sg22
I0
sg23
F-121284.0
sg25
g36
sg26
g70
sg27
g37
ssS'IZZO LAWRENCE L'
p411
(dp412
g3
F85274.0
sg4
F496.0
sg5
F1979596.0
sg6
F312500.0
sg8
F1.4736842105263157
sg9
g45
sg10
S'larry.izzo@enron.com'
p413
sg12
F0.0
sg14
F5819980.0
sg15
F28093.0
sg16
F0.010080645161290322
sg17
F2165172.0
sg19
F19.0
sg20
F1553729.0
sg21
F5.0
sg22
I0
sg23
g24
sg25
F437.0
sg26
F3654808.0
sg27
F28.0
ssS'TILNEY ELIZABETH A'
p414
(dp415
g3
F247338.0
sg4
F460.0
sg5
F399393.0
sg6
F275000.0
sg8
F0.5263157894736842
sg9
F300000.0
sg10
S'elizabeth.tilney@enron.com'
p416
sg12
F0.0
sg14
F1168042.0
sg15
g47
sg16
F0.02391304347826087
sg17
F591250.0
sg19
F19.0
sg20
F152055.0
sg21
F11.0
sg22
I0
sg23
F-575000.0
sg25
F379.0
sg26
F576792.0
sg27
F10.0
ssS'MARTIN AMANDA K'
p417
(dp418
g3
F349487.0
sg4
F1522.0
sg5
F8407016.0
sg6
F5145434.0
sg8
F0.034782608695652174
sg9
g45
sg10
S'a..martin@enron.com'
p419
sg12
g13
sg14
F2070306.0
sg15
F8211.0
sg16
F0.0
sg17
F2070306.0
sg19
F230.0
sg20
F2818454.0
sg21
F0.0
sg22
I0
sg23
g24
sg25
F477.0
sg26
g70
sg27
F8.0
ssS'BUY RICHARD B'
p420
(dp421
g3
F330546.0
sg4
F3523.0
sg5
F2355702.0
sg6
F769862.0
sg8
F0.14814814814814814
sg9
F900000.0
sg10
S'rick.buy@enron.com'
p422
sg12
F0.0
sg14
F3444470.0
sg15
g47
sg16
F0.02015327845586148
sg17
F2542813.0
sg19
F1053.0
sg20
F400572.0
sg21
F71.0
sg22
I0
sg23
F-694862.0
sg25
F2333.0
sg26
F901657.0
sg27
F156.0
ssS'GRAMM WENDY L'
p423
(dp424
g3
g43
sg4
g30
sg5
F119292.0
sg6
g7
sg8
g31
sg9
g45
sg10
g32
sg12
g13
sg14
g74
sg15
g47
sg16
g33
sg17
g18
sg19
g34
sg20
g48
sg21
g35
sg22
I0
sg23
g24
sg25
g36
sg26
g70
sg27
g37
ssS'CAUSEY RICHARD A'
p425
(dp426
g3
F415189.0
sg4
F1892.0
sg5
F1868758.0
sg6
F350000.0
sg8
F1.183673469387755
sg9
F1000000.0
sg10
S'richard.causey@enron.com'
p427
sg12
g13
sg14
F2502063.0
sg15
F30674.0
sg16
F0.006342494714587738
sg17
g18
sg19
F49.0
sg20
F307895.0
sg21
F12.0
sg22
I1
sg23
F-235000.0
sg25
F1585.0
sg26
F2502063.0
sg27
F58.0
ssS'TAYLOR MITCHELL S'
p428
(dp429
g3
F265214.0
sg4
F533.0
sg5
F1092663.0
sg6
g7
sg8
F0.0
sg9
F600000.0
sg10
S'mitchell.taylor@enron.com'
p430
sg12
F0.0
sg14
F3745048.0
sg15
g47
sg16
F0.0
sg17
F3181250.0
sg19
F29.0
sg20
g48
sg21
F0.0
sg22
I0
sg23
g24
sg25
F300.0
sg26
F563798.0
sg27
F0.0
ssS'DONAHUE JR JEFFREY M'
p431
(dp432
g3
F278601.0
sg4
F865.0
sg5
F875760.0
sg6
g7
sg8
F8.545454545454545
sg9
F800000.0
sg10
S'jeff.donahue@enron.com'
p433
sg12
F0.0
sg14
F1080988.0
sg15
F96268.0
sg16
F0.012716763005780347
sg17
F765920.0
sg19
F22.0
sg20
F891.0
sg21
F11.0
sg22
I0
sg23
F-300000.0
sg25
F772.0
sg26
F315068.0
sg27
F188.0
ssS'GLISAN JR BEN F'
p434
(dp435
g3
F274975.0
sg4
F873.0
sg5
F1272284.0
sg6
F71023.0
sg8
F3.25
sg9
F600000.0
sg10
S'ben.glisan@enron.com'
p436
sg12
F0.0
sg14
F778546.0
sg15
F125978.0
sg16
F0.006872852233676976
sg17
F384728.0
sg19
F16.0
sg20
F200308.0
sg21
F6.0
sg22
I1
sg23
g24
sg25
F874.0
sg26
F393818.0
sg27
F52.0
ss.